; ModuleID = '20/360.c'
source_filename = "20/360.c"
target datalayout = "e-m:e-p270:32:32-p271:32:32-p272:64:64-i64:64-f80:128-n8:16:32:64-S128"
target triple = "x86_64-pc-linux-gnu"

@.str = private unnamed_addr constant [6 x i8] c"%s %s\00", align 1
@.str.1 = private unnamed_addr constant [3 x i8] c"%c\00", align 1
@.str.2 = private unnamed_addr constant [2 x i8] c"\0A\00", align 1

; Function Attrs: noinline nounwind uwtable
define dso_local void @main() #0 {
  %1 = alloca i32, align 4
  %2 = alloca i32, align 4
  %3 = alloca [11 x i8], align 1
  %4 = alloca [4 x i8], align 1
  %5 = alloca i32, align 4
  %6 = alloca i8*, align 8
  %7 = alloca i8*, align 8
  %8 = alloca i8*, align 8
  br label %9

9:                                                ; preds = %99, %0
  %10 = getelementptr inbounds [11 x i8], [11 x i8]* %3, i64 0, i64 0
  %11 = getelementptr inbounds [4 x i8], [4 x i8]* %4, i64 0, i64 0
  %12 = call i32 (i8*, ...) @__isoc99_scanf(i8* getelementptr inbounds ([6 x i8], [6 x i8]* @.str, i64 0, i64 0), i8* %10, i8* %11)
  %13 = icmp ne i32 %12, -1
  br i1 %13, label %14, label %101

14:                                               ; preds = %9
  %15 = getelementptr inbounds [11 x i8], [11 x i8]* %3, i64 0, i64 0
  %16 = call i64 @strlen(i8* %15) #3
  %17 = trunc i64 %16 to i32
  store i32 %17, i32* %2, align 4
  %18 = getelementptr inbounds [11 x i8], [11 x i8]* %3, i64 0, i64 0
  store i8* %18, i8** %6, align 8
  %19 = getelementptr inbounds [11 x i8], [11 x i8]* %3, i64 0, i64 0
  store i8* %19, i8** %7, align 8
  %20 = getelementptr inbounds [11 x i8], [11 x i8]* %3, i64 0, i64 0
  store i8* %20, i8** %8, align 8
  %21 = getelementptr inbounds [11 x i8], [11 x i8]* %3, i64 0, i64 0
  %22 = load i8, i8* %21, align 1
  %23 = sext i8 %22 to i32
  store i32 %23, i32* %5, align 4
  store i32 0, i32* %1, align 4
  br label %24

24:                                               ; preds = %49, %14
  %25 = load i32, i32* %1, align 4
  %26 = load i32, i32* %2, align 4
  %27 = icmp slt i32 %25, %26
  br i1 %27, label %28, label %52

28:                                               ; preds = %24
  %29 = load i8*, i8** %6, align 8
  %30 = load i32, i32* %1, align 4
  %31 = sext i32 %30 to i64
  %32 = getelementptr inbounds i8, i8* %29, i64 %31
  %33 = load i8, i8* %32, align 1
  %34 = sext i8 %33 to i32
  %35 = load i32, i32* %5, align 4
  %36 = icmp sgt i32 %34, %35
  br i1 %36, label %37, label %48

37:                                               ; preds = %28
  %38 = load i8*, i8** %6, align 8
  %39 = load i32, i32* %1, align 4
  %40 = sext i32 %39 to i64
  %41 = getelementptr inbounds i8, i8* %38, i64 %40
  %42 = load i8, i8* %41, align 1
  %43 = sext i8 %42 to i32
  store i32 %43, i32* %5, align 4
  %44 = load i8*, i8** %6, align 8
  %45 = load i32, i32* %1, align 4
  %46 = sext i32 %45 to i64
  %47 = getelementptr inbounds i8, i8* %44, i64 %46
  store i8* %47, i8** %7, align 8
  br label %48

48:                                               ; preds = %37, %28
  br label %49

49:                                               ; preds = %48
  %50 = load i32, i32* %1, align 4
  %51 = add nsw i32 %50, 1
  store i32 %51, i32* %1, align 4
  br label %24

52:                                               ; preds = %24
  %53 = getelementptr inbounds [11 x i8], [11 x i8]* %3, i64 0, i64 0
  store i8* %53, i8** %6, align 8
  br label %54

54:                                               ; preds = %64, %52
  %55 = load i8*, i8** %6, align 8
  %56 = load i8*, i8** %7, align 8
  %57 = getelementptr inbounds i8, i8* %56, i64 1
  %58 = icmp ult i8* %55, %57
  br i1 %58, label %59, label %67

59:                                               ; preds = %54
  %60 = load i8*, i8** %6, align 8
  %61 = load i8, i8* %60, align 1
  %62 = sext i8 %61 to i32
  %63 = call i32 (i8*, ...) @printf(i8* getelementptr inbounds ([3 x i8], [3 x i8]* @.str.1, i64 0, i64 0), i32 %62)
  br label %64

64:                                               ; preds = %59
  %65 = load i8*, i8** %6, align 8
  %66 = getelementptr inbounds i8, i8* %65, i32 1
  store i8* %66, i8** %6, align 8
  br label %54

67:                                               ; preds = %54
  store i32 0, i32* %1, align 4
  br label %68

68:                                               ; preds = %78, %67
  %69 = load i32, i32* %1, align 4
  %70 = icmp slt i32 %69, 3
  br i1 %70, label %71, label %81

71:                                               ; preds = %68
  %72 = load i32, i32* %1, align 4
  %73 = sext i32 %72 to i64
  %74 = getelementptr inbounds [4 x i8], [4 x i8]* %4, i64 0, i64 %73
  %75 = load i8, i8* %74, align 1
  %76 = sext i8 %75 to i32
  %77 = call i32 (i8*, ...) @printf(i8* getelementptr inbounds ([3 x i8], [3 x i8]* @.str.1, i64 0, i64 0), i32 %76)
  br label %78

78:                                               ; preds = %71
  %79 = load i32, i32* %1, align 4
  %80 = add nsw i32 %79, 1
  store i32 %80, i32* %1, align 4
  br label %68

81:                                               ; preds = %68
  %82 = load i8*, i8** %7, align 8
  %83 = getelementptr inbounds i8, i8* %82, i64 1
  store i8* %83, i8** %6, align 8
  br label %84

84:                                               ; preds = %96, %81
  %85 = load i8*, i8** %6, align 8
  %86 = load i8*, i8** %8, align 8
  %87 = load i32, i32* %2, align 4
  %88 = sext i32 %87 to i64
  %89 = getelementptr inbounds i8, i8* %86, i64 %88
  %90 = icmp ult i8* %85, %89
  br i1 %90, label %91, label %99

91:                                               ; preds = %84
  %92 = load i8*, i8** %6, align 8
  %93 = load i8, i8* %92, align 1
  %94 = sext i8 %93 to i32
  %95 = call i32 (i8*, ...) @printf(i8* getelementptr inbounds ([3 x i8], [3 x i8]* @.str.1, i64 0, i64 0), i32 %94)
  br label %96

96:                                               ; preds = %91
  %97 = load i8*, i8** %6, align 8
  %98 = getelementptr inbounds i8, i8* %97, i32 1
  store i8* %98, i8** %6, align 8
  br label %84

99:                                               ; preds = %84
  %100 = call i32 (i8*, ...) @printf(i8* getelementptr inbounds ([2 x i8], [2 x i8]* @.str.2, i64 0, i64 0))
  br label %9

101:                                              ; preds = %9
  ret void
}

declare dso_local i32 @__isoc99_scanf(i8*, ...) #1

; Function Attrs: nounwind readonly
declare dso_local i64 @strlen(i8*) #2

declare dso_local i32 @printf(i8*, ...) #1


!llvm.module.flags = !{!0}
!llvm.ident = !{!1}

!0 = !{i32 1, !"wchar_size", i32 4}
!1 = !{!"clang version 10.0.0-4ubuntu1 "}
